target datalayout = "e-m:e-p270:32:32-p271:32:32-p272:64:64-i64:64-i128:128-f80:128-n8:16:32:64-S128"
target triple = "x86_64-pc-linux-gnu"

%struct.OnigEncodingTypeST = type { ptr, ptr, i32, i32, ptr, ptr, ptr, ptr, ptr, ptr, ptr, ptr, ptr, ptr, ptr, ptr, ptr, i32, i32 }
%struct.enc_property = type { i8, i8 }
%struct.onig_jis_property_pool_t = type { [4 x i8], [6 x i8], [6 x i8], [9 x i8], [9 x i8], [9 x i8] }

@onig_jis_property_pool_contents = internal constant %struct.onig_jis_property_pool_t { [4 x i8] c"han\00", [6 x i8] c"latin\00", [6 x i8] c"greek\00", [9 x i8] c"hiragana\00", [9 x i8] c"katakana\00", [9 x i8] c"cyrillic\00" }, align 1
@OnigEncodingASCII = external constant %struct.OnigEncodingTypeST, align 8

; Function Attrs: inlinehint nounwind sspstrong uwtable
define internal i32 @gperf_case_strncmp(ptr noundef %0, ptr noundef %1, i64 noundef %2) #3 {
  %4 = alloca ptr, align 8
  %5 = alloca ptr, align 8
  %6 = alloca i64, align 8
  %7 = alloca ptr, align 8
  %8 = alloca ptr, align 8
  store ptr %0, ptr %4, align 8, !tbaa !13
  store ptr %1, ptr %5, align 8, !tbaa !13
  store i64 %2, ptr %6, align 8, !tbaa !37
  call void @llvm.lifetime.start.p0(i64 8, ptr %7) #4
  %9 = load ptr, ptr %4, align 8, !tbaa !13
  store ptr %9, ptr %7, align 8, !tbaa !13
  call void @llvm.lifetime.start.p0(i64 8, ptr %8) #4
  %10 = load ptr, ptr %5, align 8, !tbaa !13
  store ptr %10, ptr %8, align 8, !tbaa !13
  %11 = load ptr, ptr %7, align 8, !tbaa !13
  %12 = load ptr, ptr %7, align 8, !tbaa !13
  %13 = load i64, ptr %6, align 8, !tbaa !37
  %14 = getelementptr inbounds nuw i8, ptr %12, i64 %13
  %15 = load ptr, ptr %8, align 8, !tbaa !13
  %16 = load i64, ptr %6, align 8, !tbaa !37
  %17 = trunc i64 %16 to i32
  %18 = call i32 @onigenc_with_ascii_strnicmp(ptr noundef @OnigEncodingASCII, ptr noundef %11, ptr noundef %14, ptr noundef %15, i32 noundef %17)
  call void @llvm.lifetime.end.p0(i64 8, ptr %8) #4
  call void @llvm.lifetime.end.p0(i64 8, ptr %7) #4
  ret i32 %18
}

; Function Attrs: inlinehint nounwind sspstrong uwtable
define internal i32 @onig_jis_property_hash(ptr noundef %0, i64 noundef %1) #3 {
  %3 = alloca ptr, align 8
  %4 = alloca i64, align 8
  store ptr %0, ptr %3, align 8, !tbaa !13
  store i64 %1, ptr %4, align 8, !tbaa !37
  %5 = load i64, ptr %4, align 8, !tbaa !37
  %6 = trunc i64 %5 to i32
  %7 = load ptr, ptr %3, align 8, !tbaa !13
  %8 = getelementptr inbounds i8, ptr %7, i64 2
  %9 = load i8, ptr %8, align 1, !tbaa !16
  %10 = zext i8 %9 to i64
  %11 = getelementptr inbounds nuw [128 x i8], ptr @onig_jis_property_hash.asso_values, i64 0, i64 %10
  %12 = load i8, ptr %11, align 1, !tbaa !16
  %13 = zext i8 %12 to i32
  %14 = add i32 %6, %13
  %15 = load ptr, ptr %3, align 8, !tbaa !13
  %16 = getelementptr inbounds i8, ptr %15, i64 0
  %17 = load i8, ptr %16, align 1, !tbaa !16
  %18 = zext i8 %17 to i64
  %19 = getelementptr inbounds nuw [128 x i8], ptr @onig_jis_property_hash.asso_values, i64 0, i64 %18
  %20 = load i8, ptr %19, align 1, !tbaa !16
  %21 = zext i8 %20 to i32
  %22 = add i32 %14, %21
  ret i32 %22
}

; Function Attrs: nounwind sspstrong uwtable
define internal ptr @onig_jis_property(ptr noundef %0, i64 noundef %1) #0 {
  %3 = alloca ptr, align 8
  %4 = alloca ptr, align 8
  %5 = alloca i64, align 8
  %6 = alloca i32, align 4
  %7 = alloca i32, align 4
  %8 = alloca ptr, align 8
  %9 = alloca i32, align 4
  store ptr %0, ptr %4, align 8, !tbaa !13
  store i64 %1, ptr %5, align 8, !tbaa !37
  %10 = load i64, ptr %5, align 8, !tbaa !37
  %11 = icmp ule i64 %10, 8
  br i1 %11, label %12, label %72

12:                                               ; preds = %2
  %13 = load i64, ptr %5, align 8, !tbaa !37
  %14 = icmp uge i64 %13, 3
  br i1 %14, label %15, label %72

15:                                               ; preds = %12
  call void @llvm.lifetime.start.p0(i64 4, ptr %6) #4
  %16 = load ptr, ptr %4, align 8, !tbaa !13
  %17 = load i64, ptr %5, align 8, !tbaa !37
  %18 = call i32 @onig_jis_property_hash(ptr noundef %16, i64 noundef %17)
  store i32 %18, ptr %6, align 4, !tbaa !17
  %19 = load i32, ptr %6, align 4, !tbaa !17
  %20 = icmp ule i32 %19, 12
  br i1 %20, label %21, label %68

21:                                               ; preds = %15
  call void @llvm.lifetime.start.p0(i64 4, ptr %7) #4
  %22 = load i32, ptr %6, align 4, !tbaa !17
  %23 = zext i32 %22 to i64
  %24 = getelementptr inbounds nuw [13 x %struct.enc_property], ptr @onig_jis_property.wordlist, i64 0, i64 %23
  %25 = getelementptr inbounds nuw %struct.enc_property, ptr %24, i32 0, i32 0
  %26 = load i8, ptr %25, align 2, !tbaa !39
  %27 = sext i8 %26 to i32
  store i32 %27, ptr %7, align 4, !tbaa !17
  %28 = load i32, ptr %7, align 4, !tbaa !17
  %29 = icmp sge i32 %28, 0
  br i1 %29, label %30, label %64

30:                                               ; preds = %21
  call void @llvm.lifetime.start.p0(i64 8, ptr %8) #4
  %31 = load i32, ptr %7, align 4, !tbaa !17
  %32 = sext i32 %31 to i64
  %33 = getelementptr inbounds i8, ptr @onig_jis_property_pool_contents, i64 %32
  store ptr %33, ptr %8, align 8, !tbaa !13
  %34 = load ptr, ptr %4, align 8, !tbaa !13
  %35 = load i8, ptr %34, align 1, !tbaa !16
  %36 = zext i8 %35 to i32
  %37 = load ptr, ptr %8, align 8, !tbaa !13
  %38 = load i8, ptr %37, align 1, !tbaa !16
  %39 = zext i8 %38 to i32
  %40 = xor i32 %36, %39
  %41 = and i32 %40, -33
  %42 = icmp eq i32 %41, 0
  br i1 %42, label %43, label %60

43:                                               ; preds = %30
  %44 = load ptr, ptr %4, align 8, !tbaa !13
  %45 = load ptr, ptr %8, align 8, !tbaa !13
  %46 = load i64, ptr %5, align 8, !tbaa !37
  %47 = call i32 @gperf_case_strncmp(ptr noundef %44, ptr noundef %45, i64 noundef %46)
  %48 = icmp ne i32 %47, 0
  br i1 %48, label %60, label %49

49:                                               ; preds = %43
  %50 = load ptr, ptr %8, align 8, !tbaa !13
  %51 = load i64, ptr %5, align 8, !tbaa !37
  %52 = getelementptr inbounds nuw i8, ptr %50, i64 %51
  %53 = load i8, ptr %52, align 1, !tbaa !16
  %54 = sext i8 %53 to i32
  %55 = icmp eq i32 %54, 0
  br i1 %55, label %56, label %60

56:                                               ; preds = %49
  %57 = load i32, ptr %6, align 4, !tbaa !17
  %58 = zext i32 %57 to i64
  %59 = getelementptr inbounds nuw [13 x %struct.enc_property], ptr @onig_jis_property.wordlist, i64 0, i64 %58
  store ptr %59, ptr %3, align 8
  store i32 1, ptr %9, align 4
  br label %61

60:                                               ; preds = %49, %43, %30
  store i32 0, ptr %9, align 4
  br label %61

61:                                               ; preds = %60, %56
  call void @llvm.lifetime.end.p0(i64 8, ptr %8) #4
  %62 = load i32, ptr %9, align 4
  switch i32 %62, label %65 [
    i32 0, label %63
  ]

63:                                               ; preds = %61
  br label %64

64:                                               ; preds = %63, %21
  store i32 0, ptr %9, align 4
  br label %65

65:                                               ; preds = %64, %61
  call void @llvm.lifetime.end.p0(i64 4, ptr %7) #4
  %66 = load i32, ptr %9, align 4
  switch i32 %66, label %69 [
    i32 0, label %67
  ]

67:                                               ; preds = %65
  br label %68

68:                                               ; preds = %67, %15
  store i32 0, ptr %9, align 4
  br label %69

69:                                               ; preds = %68, %65
  call void @llvm.lifetime.end.p0(i64 4, ptr %6) #4
  %70 = load i32, ptr %9, align 4
  switch i32 %70, label %75 [
    i32 0, label %71
    i32 1, label %73
  ]

71:                                               ; preds = %69
  br label %72

72:                                               ; preds = %71, %12, %2
  store ptr null, ptr %3, align 8
  br label %73

73:                                               ; preds = %72, %69
  %74 = load ptr, ptr %3, align 8
  ret ptr %74

75:                                               ; preds = %69
  unreachable
}

; Function Attrs: nounwind sspstrong uwtable
define internal i32 @property_name_to_ctype(ptr noundef %0, ptr noundef %1, ptr noundef %2) #0 {
  %4 = alloca i32, align 4
  %5 = alloca ptr, align 8
  %6 = alloca ptr, align 8
  %7 = alloca ptr, align 8
  %8 = alloca ptr, align 8
  %9 = alloca ptr, align 8
  %10 = alloca ptr, align 8
  %11 = alloca i32, align 4
  store ptr %0, ptr %5, align 8, !tbaa !14
  store ptr %1, ptr %6, align 8, !tbaa !13
  store ptr %2, ptr %7, align 8, !tbaa !13
  call void @llvm.lifetime.start.p0(i64 8, ptr %8) #4
  %12 = load ptr, ptr %6, align 8, !tbaa !13
  store ptr %12, ptr %8, align 8, !tbaa !13
  call void @llvm.lifetime.start.p0(i64 8, ptr %9) #4
  %13 = load ptr, ptr %7, align 8, !tbaa !13
  store ptr %13, ptr %9, align 8, !tbaa !13
  call void @llvm.lifetime.start.p0(i64 8, ptr %10) #4
  %14 = load ptr, ptr %8, align 8, !tbaa !13
  %15 = load ptr, ptr %9, align 8, !tbaa !13
  %16 = load ptr, ptr %8, align 8, !tbaa !13
  %17 = ptrtoint ptr %15 to i64
  %18 = ptrtoint ptr %16 to i64
  %19 = sub i64 %17, %18
  %20 = trunc i64 %19 to i32
  %21 = zext i32 %20 to i64
  %22 = call ptr @onig_jis_property(ptr noundef %14, i64 noundef %21)
  store ptr %22, ptr %10, align 8, !tbaa !26
  %23 = load ptr, ptr %10, align 8, !tbaa !26
  %24 = icmp ne ptr %23, null
  br i1 %24, label %30, label %25

25:                                               ; preds = %3
  %26 = load ptr, ptr %5, align 8, !tbaa !14
  %27 = load ptr, ptr %8, align 8, !tbaa !13
  %28 = load ptr, ptr %9, align 8, !tbaa !13
  %29 = call i32 @onigenc_minimum_property_name_to_ctype(ptr noundef %26, ptr noundef %27, ptr noundef %28)
  store i32 %29, ptr %4, align 4
  store i32 1, ptr %11, align 4
  br label %35

30:                                               ; preds = %3
  %31 = load ptr, ptr %10, align 8, !tbaa !26
  %32 = getelementptr inbounds nuw %struct.enc_property, ptr %31, i32 0, i32 1
  %33 = load i8, ptr %32, align 1, !tbaa !28
  %34 = zext i8 %33 to i32
  store i32 %34, ptr %4, align 4
  store i32 1, ptr %11, align 4
  br label %35

35:                                               ; preds = %30, %25
  call void @llvm.lifetime.end.p0(i64 8, ptr %10) #4
  call void @llvm.lifetime.end.p0(i64 8, ptr %9) #4
  call void @llvm.lifetime.end.p0(i64 8, ptr %8) #4
  %36 = load i32, ptr %4, align 4
  ret i32 %36
}